; Function Attrs: nofree nounwind memory(readwrite, inaccessiblemem: none) uwtable
define dso_local noundef ptr @sdstrim(ptr noundef returned %s, ptr noundef readonly %cset) local_unnamed_addr #15 {
entry:
  %s34 = ptrtoint ptr %s to i64
  %arrayidx.i = getelementptr inbounds i8, ptr %s, i64 -1
  %0 = load i8, ptr %arrayidx.i, align 1
  %conv.i = zext i8 %0 to i32
  %and.i = and i32 %conv.i, 7
  switch i32 %and.i, label %sdslen.exit [
    i32 0, label %sw.bb.i
    i32 1, label %sw.bb3.i
    i32 2, label %sw.bb5.i
    i32 3, label %sw.bb9.i
    i32 4, label %sw.bb13.i
  ]

sw.bb.i:                                          ; preds = %entry
  %shr.i = lshr i32 %conv.i, 3
  %conv2.i = zext nneg i32 %shr.i to i64
  br label %sdslen.exit

sw.bb3.i:                                         ; preds = %entry
  %add.ptr.i = getelementptr inbounds i8, ptr %s, i64 -3
  %1 = load i8, ptr %add.ptr.i, align 1
  %conv4.i = zext i8 %1 to i64
  br label %sdslen.exit

sw.bb5.i:                                         ; preds = %entry
  %add.ptr6.i = getelementptr inbounds i8, ptr %s, i64 -5
  %2 = load i16, ptr %add.ptr6.i, align 1
  %conv8.i = zext i16 %2 to i64
  br label %sdslen.exit

sw.bb9.i:                                         ; preds = %entry
  %add.ptr10.i = getelementptr inbounds i8, ptr %s, i64 -9
  %3 = load i32, ptr %add.ptr10.i, align 1
  %conv12.i = zext i32 %3 to i64
  br label %sdslen.exit

sw.bb13.i:                                        ; preds = %entry
  %add.ptr14.i = getelementptr inbounds i8, ptr %s, i64 -17
  %4 = load i64, ptr %add.ptr14.i, align 1
  br label %sdslen.exit

sdslen.exit:                                      ; preds = %entry, %sw.bb.i, %sw.bb3.i, %sw.bb5.i, %sw.bb9.i, %sw.bb13.i
  %retval.0.i = phi i64 [ %4, %sw.bb13.i ], [ %conv12.i, %sw.bb9.i ], [ %conv8.i, %sw.bb5.i ], [ %conv4.i, %sw.bb3.i ], [ %conv2.i, %sw.bb.i ], [ 0, %entry ]
  %add.ptr = getelementptr inbounds i8, ptr %s, i64 %retval.0.i
  %add.ptr1 = getelementptr inbounds i8, ptr %add.ptr, i64 -1
  %cmp.not26 = icmp ult ptr %add.ptr1, %s
  br i1 %cmp.not26, label %while.end, label %land.rhs

land.rhs:                                         ; preds = %sdslen.exit, %while.body
  %sp.027 = phi ptr [ %incdec.ptr, %while.body ], [ %s, %sdslen.exit ]
  %5 = load i8, ptr %sp.027, align 1
  %conv = sext i8 %5 to i32
  %call2 = tail call ptr @strchr(ptr noundef nonnull dereferenceable(1) %cset, i32 noundef %conv) #27
  %tobool.not = icmp eq ptr %call2, null
  br i1 %tobool.not, label %while.end.loopexit, label %while.body

while.body:                                       ; preds = %land.rhs
  %incdec.ptr = getelementptr inbounds i8, ptr %sp.027, i64 1
  %cmp.not = icmp ugt ptr %incdec.ptr, %add.ptr1
  br i1 %cmp.not, label %while.end.loopexit, label %land.rhs, !llvm.loop !7

while.end.loopexit:                               ; preds = %while.body, %land.rhs
  %sp.0.lcssa.ph = phi ptr [ %sp.027, %land.rhs ], [ %incdec.ptr, %while.body ]
  %.pre = ptrtoint ptr %sp.0.lcssa.ph to i64
  br label %while.end

while.end:                                        ; preds = %while.end.loopexit, %sdslen.exit
  %sp.0.lcssa33.pre-phi = phi i64 [ %.pre, %while.end.loopexit ], [ %s34, %sdslen.exit ]
  %sp.0.lcssa = phi ptr [ %sp.0.lcssa.ph, %while.end.loopexit ], [ %s, %sdslen.exit ]
  %cmp429 = icmp ugt ptr %add.ptr1, %sp.0.lcssa
  br i1 %cmp429, label %land.rhs6.preheader, label %while.end13

land.rhs6.preheader:                              ; preds = %while.end
  %6 = sub i64 %sp.0.lcssa33.pre-phi, %s34
  %scevgep = getelementptr i8, ptr %s, i64 %6
  br label %land.rhs6

land.rhs6:                                        ; preds = %land.rhs6.preheader, %while.body11
  %ep.030 = phi ptr [ %incdec.ptr12, %while.body11 ], [ %add.ptr1, %land.rhs6.preheader ]
  %7 = load i8, ptr %ep.030, align 1
  %conv7 = sext i8 %7 to i32
  %call8 = tail call ptr @strchr(ptr noundef nonnull dereferenceable(1) %cset, i32 noundef %conv7) #27
  %tobool9.not = icmp eq ptr %call8, null
  br i1 %tobool9.not, label %while.end13, label %while.body11

while.body11:                                     ; preds = %land.rhs6
  %incdec.ptr12 = getelementptr inbounds i8, ptr %ep.030, i64 -1
  %cmp4 = icmp ugt ptr %incdec.ptr12, %sp.0.lcssa
  br i1 %cmp4, label %land.rhs6, label %while.end13, !llvm.loop !8

while.end13:                                      ; preds = %land.rhs6, %while.body11, %while.end
  %ep.0.lcssa = phi ptr [ %add.ptr1, %while.end ], [ %scevgep, %while.body11 ], [ %ep.030, %land.rhs6 ]
  %sub.ptr.lhs.cast = ptrtoint ptr %ep.0.lcssa to i64
  %sub.ptr.sub = sub i64 %sub.ptr.lhs.cast, %sp.0.lcssa33.pre-phi
  %add = add nsw i64 %sub.ptr.sub, 1
  %cmp14.not = icmp eq ptr %sp.0.lcssa, %s
  br i1 %cmp14.not, label %if.end, label %if.then

if.then:                                          ; preds = %while.end13
  tail call void @llvm.memmove.p0.p0.i64(ptr align 1 %s, ptr nonnull align 1 %sp.0.lcssa, i64 %add, i1 false)
  br label %if.end

if.end:                                           ; preds = %if.then, %while.end13
  %arrayidx = getelementptr inbounds i8, ptr %s, i64 %add
  store i8 0, ptr %arrayidx, align 1
  %8 = load i8, ptr %arrayidx.i, align 1
  %9 = and i8 %8, 7
  switch i8 %9, label %sdssetlen.exit [
    i8 0, label %sw.bb.i25
    i8 1, label %sw.bb2.i
    i8 2, label %sw.bb5.i24
    i8 3, label %sw.bb9.i23
    i8 4, label %sw.bb13.i21
  ]

sw.bb.i25:                                        ; preds = %if.end
  %newlen.tr.i = trunc i64 %add to i8
  %conv1.i = shl i8 %newlen.tr.i, 3
  store i8 %conv1.i, ptr %arrayidx.i, align 1
  br label %sdssetlen.exit

sw.bb2.i:                                         ; preds = %if.end
  %conv3.i = trunc i64 %add to i8
  %add.ptr4.i = getelementptr inbounds i8, ptr %s, i64 -3
  store i8 %conv3.i, ptr %add.ptr4.i, align 1
  br label %sdssetlen.exit

sw.bb5.i24:                                       ; preds = %if.end
  %conv6.i = trunc i64 %add to i16
  %add.ptr7.i = getelementptr inbounds i8, ptr %s, i64 -5
  store i16 %conv6.i, ptr %add.ptr7.i, align 1
  br label %sdssetlen.exit

sw.bb9.i23:                                       ; preds = %if.end
  %conv10.i = trunc i64 %add to i32
  %add.ptr11.i = getelementptr inbounds i8, ptr %s, i64 -9
  store i32 %conv10.i, ptr %add.ptr11.i, align 1
  br label %sdssetlen.exit

sw.bb13.i21:                                      ; preds = %if.end
  %add.ptr14.i22 = getelementptr inbounds i8, ptr %s, i64 -17
  store i64 %add, ptr %add.ptr14.i22, align 1
  br label %sdssetlen.exit

sdssetlen.exit:                                   ; preds = %if.end, %sw.bb.i25, %sw.bb2.i, %sw.bb5.i24, %sw.bb9.i23, %sw.bb13.i21
  ret ptr %s
}